target datalayout = "e-m:e-p270:32:32-p271:32:32-p272:64:64-i64:64-i128:128-f80:128-n8:16:32:64-S128"
target triple = "x86_64-pc-linux-gnu"

%struct.ssl_connection_st = type { %struct.ssl_st, ptr, i32, ptr, ptr, ptr, i32, ptr, i32, i32, i32, i32, %struct.OSSL_TIME, %struct.OSSL_TIME, %struct.ossl_statem_st, i32, ptr, ptr, i64, i64, i64, %struct.ossl_quic_tls_callbacks_st, ptr, ptr, %struct.anon, ptr, ptr, ptr, i32, ptr, %struct.ssl_dane_st, ptr, ptr, ptr, ptr, i32, [64 x i8], [64 x i8], [64 x i8], [64 x i8], [64 x i8], [64 x i8], [64 x i8], [64 x i8], [64 x i8], [64 x i8], [64 x i8], [64 x i8], ptr, [64 x i8], i64, i32, i64, [32 x i8], ptr, ptr, ptr, i64, ptr, [32 x i8], i64, i32, ptr, ptr, i32, i32, ptr, ptr, ptr, ptr, ptr, i64, ptr, ptr, i64, i32, i32, i32, i64, i32, i32, i64, i64, i64, %struct.anon.1, ptr, i32, ptr, ptr, ptr, i32, ptr, ptr, ptr, i32, i32, i32, i32, ptr, i64, i32, ptr, %struct.srp_ctx_st, ptr, %struct.record_layer_st, ptr, ptr, ptr, ptr, i64, i32, i32, i32, i64, i64, i64, ptr, ptr, ptr, ptr, ptr, i64, ptr, i64, ptr, i64 }
%struct.ssl_st = type { i32, ptr, ptr, ptr, %struct.CRYPTO_REF_COUNT, ptr, %struct.crypto_ex_data_st }
%struct.CRYPTO_REF_COUNT = type { i32 }
%struct.crypto_ex_data_st = type { ptr, ptr }
%struct.OSSL_TIME = type { i64 }
%struct.ossl_statem_st = type { i32, i32, i32, i32, i32, i32, i32, i32, i32, i32, i32, i32, i32, ptr, ptr, ptr, i8 }
%struct.ossl_quic_tls_callbacks_st = type { ptr, ptr, ptr, ptr, ptr, ptr }
%struct.anon = type { i64, [32 x i8], [32 x i8], ptr, ptr, i32, i32, i32, i32, [2 x i8], i32, i32, i32, i32, %struct.anon.0, [64 x i8], i64, [64 x i8], i64, i32, i32, ptr, i64, ptr, i64, i32, i8, i8, i16, ptr, i16 }
%struct.anon.0 = type { [128 x i8], i64, [128 x i8], i64, i64, i32, ptr, ptr, [4 x ptr], [4 x i16], i64, i32, ptr, i64, ptr, i64, ptr, ptr, ptr, i32, i64, ptr, i32, ptr, i64, ptr, i64, ptr, i64, ptr, ptr, ptr, ptr, i64, i64, ptr, ptr, i32, i32, i32, i32 }
%struct.ssl_dane_st = type { ptr, ptr, ptr, ptr, ptr, i32, i32, i32, i64 }
%struct.anon.1 = type { [29 x i8], ptr, ptr, ptr, i32, ptr, i16, i32, %struct.anon.2, i32, i32, i64, ptr, i64, ptr, i64, ptr, i64, ptr, i64, ptr, i64, ptr, ptr, ptr, ptr, ptr, ptr, ptr, i64, ptr, i64, i32, i32, i32, i32, ptr, i64, i32, i8, i32, [4 x i32], i32, i8, i8, i8, i8 }
%struct.anon.2 = type { ptr, ptr, ptr, i64 }
%struct.srp_ctx_st = type { ptr, ptr, ptr, ptr, ptr, ptr, ptr, ptr, ptr, ptr, ptr, ptr, ptr, ptr, i32, i64 }
%struct.record_layer_st = type { ptr, ptr, ptr, ptr, ptr, ptr, ptr, ptr, i64, i32, i64, [4 x i8], i64, i64, i8, ptr, i32, ptr, ptr, ptr, i64, i64, i64, i64, [32 x %struct.tls_record_st] }
%struct.tls_record_st = type { ptr, i32, i8, ptr, ptr, i64, i64, i16, [8 x i8] }
%struct.ssl_method_st = type { i32, i32, i64, ptr, ptr, ptr, ptr, ptr, ptr, ptr, ptr, ptr, ptr, ptr, ptr, ptr, ptr, ptr, ptr, ptr, ptr, ptr, ptr, ptr, ptr, ptr, ptr, ptr, ptr, ptr, ptr, ptr }
%struct.ssl3_enc_method = type { ptr, ptr, ptr, ptr, ptr, i64, ptr, i64, ptr, ptr, i32, ptr, ptr, ptr }

; Function Attrs: nounwind uwtable
define i64 @ossl_statem_client_max_message_size(ptr noundef %0) #0 {
  %2 = alloca i64, align 8
  %3 = alloca ptr, align 8
  %4 = alloca ptr, align 8
  %5 = alloca i32, align 4
  store ptr %0, ptr %3, align 8, !tbaa !3
  call void @llvm.lifetime.start.p0(i64 8, ptr %4) #8
  %6 = load ptr, ptr %3, align 8, !tbaa !3
  %7 = getelementptr inbounds nuw %struct.ssl_connection_st, ptr %6, i32 0, i32 14
  store ptr %7, ptr %4, align 8, !tbaa !10
  %8 = load ptr, ptr %4, align 8, !tbaa !10
  %9 = getelementptr inbounds nuw %struct.ossl_statem_st, ptr %8, i32 0, i32 5
  %10 = load i32, ptr %9, align 4, !tbaa !79
  switch i32 %10, label %11 [
    i32 3, label %12
    i32 2, label %13
    i32 5, label %14
    i32 4, label %14
    i32 43, label %18
    i32 6, label %19
    i32 7, label %20
    i32 8, label %21
    i32 9, label %25
    i32 11, label %26
    i32 10, label %33
    i32 12, label %64
    i32 42, label %65
    i32 49, label %66
  ]

11:                                               ; preds = %1
  store i64 0, ptr %2, align 8
  store i32 1, ptr %5, align 4
  br label %67

12:                                               ; preds = %1
  store i64 65607, ptr %2, align 8
  store i32 1, ptr %5, align 4
  br label %67

13:                                               ; preds = %1
  store i64 258, ptr %2, align 8
  store i32 1, ptr %5, align 4
  br label %67

14:                                               ; preds = %1, %1
  %15 = load ptr, ptr %3, align 8, !tbaa !3
  %16 = getelementptr inbounds nuw %struct.ssl_connection_st, ptr %15, i32 0, i32 78
  %17 = load i64, ptr %16, align 8, !tbaa !179
  store i64 %17, ptr %2, align 8
  store i32 1, ptr %5, align 4
  br label %67

18:                                               ; preds = %1
  store i64 65539, ptr %2, align 8
  store i32 1, ptr %5, align 4
  br label %67

19:                                               ; preds = %1
  store i64 16384, ptr %2, align 8
  store i32 1, ptr %5, align 4
  br label %67

20:                                               ; preds = %1
  store i64 102400, ptr %2, align 8
  store i32 1, ptr %5, align 4
  br label %67

21:                                               ; preds = %1
  %22 = load ptr, ptr %3, align 8, !tbaa !3
  %23 = getelementptr inbounds nuw %struct.ssl_connection_st, ptr %22, i32 0, i32 78
  %24 = load i64, ptr %23, align 8, !tbaa !179
  store i64 %24, ptr %2, align 8
  store i32 1, ptr %5, align 4
  br label %67

25:                                               ; preds = %1
  store i64 0, ptr %2, align 8
  store i32 1, ptr %5, align 4
  br label %67

26:                                               ; preds = %1
  %27 = load ptr, ptr %3, align 8, !tbaa !3
  %28 = getelementptr inbounds nuw %struct.ssl_connection_st, ptr %27, i32 0, i32 2
  %29 = load i32, ptr %28, align 8, !tbaa !82
  %30 = icmp eq i32 %29, 256
  br i1 %30, label %31, label %32

31:                                               ; preds = %26
  store i64 3, ptr %2, align 8
  store i32 1, ptr %5, align 4
  br label %67

32:                                               ; preds = %26
  store i64 1, ptr %2, align 8
  store i32 1, ptr %5, align 4
  br label %67

33:                                               ; preds = %1
  %34 = load ptr, ptr %3, align 8, !tbaa !3
  %35 = getelementptr inbounds nuw %struct.ssl_connection_st, ptr %34, i32 0, i32 0
  %36 = getelementptr inbounds nuw %struct.ssl_st, ptr %35, i32 0, i32 3
  %37 = load ptr, ptr %36, align 8, !tbaa !12
  %38 = getelementptr inbounds nuw %struct.ssl_method_st, ptr %37, i32 0, i32 28
  %39 = load ptr, ptr %38, align 8, !tbaa !73
  %40 = getelementptr inbounds nuw %struct.ssl3_enc_method, ptr %39, i32 0, i32 10
  %41 = load i32, ptr %40, align 8, !tbaa !76
  %42 = and i32 %41, 8
  %43 = icmp ne i32 %42, 0
  br i1 %43, label %60, label %44

44:                                               ; preds = %33
  %45 = load ptr, ptr %3, align 8, !tbaa !3
  %46 = getelementptr inbounds nuw %struct.ssl_connection_st, ptr %45, i32 0, i32 0
  %47 = getelementptr inbounds nuw %struct.ssl_st, ptr %46, i32 0, i32 3
  %48 = load ptr, ptr %47, align 8, !tbaa !12
  %49 = getelementptr inbounds nuw %struct.ssl_method_st, ptr %48, i32 0, i32 0
  %50 = load i32, ptr %49, align 8, !tbaa !78
  %51 = icmp sge i32 %50, 772
  br i1 %51, label %52, label %60

52:                                               ; preds = %44
  %53 = load ptr, ptr %3, align 8, !tbaa !3
  %54 = getelementptr inbounds nuw %struct.ssl_connection_st, ptr %53, i32 0, i32 0
  %55 = getelementptr inbounds nuw %struct.ssl_st, ptr %54, i32 0, i32 3
  %56 = load ptr, ptr %55, align 8, !tbaa !12
  %57 = getelementptr inbounds nuw %struct.ssl_method_st, ptr %56, i32 0, i32 0
  %58 = load i32, ptr %57, align 8, !tbaa !78
  %59 = icmp ne i32 %58, 65536
  br label %60

60:                                               ; preds = %52, %44, %33
  %61 = phi i1 [ false, %44 ], [ false, %33 ], [ %59, %52 ]
  %62 = select i1 %61, i32 131338, i32 65541
  %63 = sext i32 %62 to i64
  store i64 %63, ptr %2, align 8
  store i32 1, ptr %5, align 4
  br label %67

64:                                               ; preds = %1
  store i64 64, ptr %2, align 8
  store i32 1, ptr %5, align 4
  br label %67

65:                                               ; preds = %1
  store i64 20000, ptr %2, align 8
  store i32 1, ptr %5, align 4
  br label %67

66:                                               ; preds = %1
  store i64 1, ptr %2, align 8
  store i32 1, ptr %5, align 4
  br label %67

67:                                               ; preds = %66, %65, %64, %60, %32, %31, %25, %21, %20, %19, %18, %14, %13, %12, %11
  call void @llvm.lifetime.end.p0(i64 8, ptr %4) #8
  %68 = load i64, ptr %2, align 8
  ret i64 %68
}