; Function Attrs: mustprogress nofree norecurse nosync nounwind willreturn memory(read, inaccessiblemem: none) uwtable
define i64 @ossl_statem_client_max_message_size(ptr noundef readonly captures(none) %0) local_unnamed_addr #4 {
  %2 = getelementptr inbounds nuw i8, ptr %0, i64 172
  %3 = load i32, ptr %2, align 4, !tbaa !75
  switch i32 %3, label %35 [
    i32 3, label %4
    i32 2, label %5
    i32 5, label %6
    i32 4, label %6
    i32 43, label %9
    i32 6, label %10
    i32 7, label %11
    i32 8, label %12
    i32 49, label %34
    i32 11, label %15
    i32 10, label %19
    i32 12, label %32
    i32 42, label %33
  ]

4:                                                ; preds = %1
  br label %35

5:                                                ; preds = %1
  br label %35

6:                                                ; preds = %1, %1
  %7 = getelementptr inbounds nuw i8, ptr %0, i64 2504
  %8 = load i64, ptr %7, align 8, !tbaa !175
  br label %35

9:                                                ; preds = %1
  br label %35

10:                                               ; preds = %1
  br label %35

11:                                               ; preds = %1
  br label %35

12:                                               ; preds = %1
  %13 = getelementptr inbounds nuw i8, ptr %0, i64 2504
  %14 = load i64, ptr %13, align 8, !tbaa !175
  br label %35

15:                                               ; preds = %1
  %16 = getelementptr inbounds nuw i8, ptr %0, i64 72
  %17 = load i32, ptr %16, align 8, !tbaa !80
  %18 = icmp eq i32 %17, 256
  %. = select i1 %18, i64 3, i64 1
  br label %35

19:                                               ; preds = %1
  %20 = getelementptr inbounds nuw i8, ptr %0, i64 24
  %21 = load ptr, ptr %20, align 8, !tbaa !3
  %22 = getelementptr inbounds nuw i8, ptr %21, i64 216
  %23 = load ptr, ptr %22, align 8, !tbaa !69
  %24 = getelementptr inbounds nuw i8, ptr %23, i64 80
  %25 = load i32, ptr %24, align 8, !tbaa !72
  %26 = and i32 %25, 8
  %.not = icmp eq i32 %26, 0
  br i1 %.not, label %27, label %35

27:                                               ; preds = %19
  %28 = load i32, ptr %21, align 8, !tbaa !74
  %29 = icmp sgt i32 %28, 771
  br i1 %29, label %30, label %35

30:                                               ; preds = %27
  %.not9 = icmp eq i32 %28, 65536
  %31 = select i1 %.not9, i64 65541, i64 131338
  br label %35

32:                                               ; preds = %1
  br label %35

33:                                               ; preds = %1
  br label %35

34:                                               ; preds = %1
  br label %35

35:                                               ; preds = %19, %27, %30, %15, %1, %34, %33, %32, %12, %11, %10, %9, %6, %5, %4
  %.0 = phi i64 [ 1, %34 ], [ 20000, %33 ], [ 64, %32 ], [ %14, %12 ], [ 102400, %11 ], [ 16384, %10 ], [ 65539, %9 ], [ %8, %6 ], [ 258, %5 ], [ 65607, %4 ], [ 0, %1 ], [ %., %15 ], [ 65541, %27 ], [ 65541, %19 ], [ %31, %30 ]
  ret i64 %.0
}